target datalayout = "e-m:e-p270:32:32-p271:32:32-p272:64:64-i64:64-i128:128-f80:128-n8:16:32:64-S128"
target triple = "x86_64-unknown-linux-gnu"

%"class.icu_75::TimeUnit" = type { %"class.icu_75::MeasureUnit.base", i32 }
%"class.icu_75::MeasureUnit.base" = type <{ %"class.icu_75::UObject", ptr, i16, i8 }>
%"class.icu_75::UObject" = type { ptr }

@.str = private unnamed_addr constant [5 x i8] c"year\00", align 1
@.str.1 = private unnamed_addr constant [6 x i8] c"month\00", align 1
@.str.2 = private unnamed_addr constant [4 x i8] c"day\00", align 1
@.str.3 = private unnamed_addr constant [5 x i8] c"week\00", align 1
@.str.4 = private unnamed_addr constant [5 x i8] c"hour\00", align 1
@.str.5 = private unnamed_addr constant [7 x i8] c"minute\00", align 1
@.str.6 = private unnamed_addr constant [7 x i8] c"second\00", align 1

; Function Attrs: mustprogress uwtable
define void @_ZN6icu_758TimeUnitC2ENS0_15UTimeUnitFieldsE(ptr noundef nonnull align 8 dereferenceable(24) %this, i32 noundef %timeUnitField) unnamed_addr #1 align 2 personality ptr @__gxx_personality_v0 {
entry:
  %this.addr = alloca ptr, align 8
  %timeUnitField.addr = alloca i32, align 4
  %exn.slot = alloca ptr, align 8
  %ehselector.slot = alloca i32, align 4
  store ptr %this, ptr %this.addr, align 8
  store i32 %timeUnitField, ptr %timeUnitField.addr, align 4
  %this1 = load ptr, ptr %this.addr, align 8
  call void @_ZN6icu_7511MeasureUnitC2Ev(ptr noundef nonnull align 8 dereferenceable(19) %this1)
  store ptr getelementptr inbounds ({ [7 x ptr] }, ptr @_ZTVN6icu_758TimeUnitE, i32 0, i32 0, i32 2), ptr %this1, align 8
  %0 = load i32, ptr %timeUnitField.addr, align 4
  %fTimeUnitField = getelementptr inbounds %"class.icu_75::TimeUnit", ptr %this1, i32 0, i32 1
  store i32 %0, ptr %fTimeUnitField, align 4
  %fTimeUnitField2 = getelementptr inbounds %"class.icu_75::TimeUnit", ptr %this1, i32 0, i32 1
  %1 = load i32, ptr %fTimeUnitField2, align 4
  switch i32 %1, label %sw.default [
    i32 0, label %sw.bb
    i32 1, label %sw.bb3
    i32 2, label %sw.bb5
    i32 3, label %sw.bb7
    i32 4, label %sw.bb9
    i32 5, label %sw.bb11
    i32 6, label %sw.bb13
  ]

sw.bb:                                            ; preds = %entry
  invoke void @_ZN6icu_7511MeasureUnit8initTimeEPKc(ptr noundef nonnull align 8 dereferenceable(19) %this1, ptr noundef @.str)
          to label %invoke.cont unwind label %lpad

invoke.cont:                                      ; preds = %sw.bb
  br label %sw.epilog

lpad:                                             ; preds = %sw.bb13, %sw.bb11, %sw.bb9, %sw.bb7, %sw.bb5, %sw.bb3, %sw.bb
  %2 = landingpad { ptr, i32 }
          cleanup
  %3 = extractvalue { ptr, i32 } %2, 0
  store ptr %3, ptr %exn.slot, align 8
  %4 = extractvalue { ptr, i32 } %2, 1
  store i32 %4, ptr %ehselector.slot, align 4
  call void @_ZN6icu_7511MeasureUnitD2Ev(ptr noundef nonnull align 8 dereferenceable(19) %this1) #5
  br label %eh.resume

sw.bb3:                                           ; preds = %entry
  invoke void @_ZN6icu_7511MeasureUnit8initTimeEPKc(ptr noundef nonnull align 8 dereferenceable(19) %this1, ptr noundef @.str.1)
          to label %invoke.cont4 unwind label %lpad

invoke.cont4:                                     ; preds = %sw.bb3
  br label %sw.epilog

sw.bb5:                                           ; preds = %entry
  invoke void @_ZN6icu_7511MeasureUnit8initTimeEPKc(ptr noundef nonnull align 8 dereferenceable(19) %this1, ptr noundef @.str.2)
          to label %invoke.cont6 unwind label %lpad

invoke.cont6:                                     ; preds = %sw.bb5
  br label %sw.epilog

sw.bb7:                                           ; preds = %entry
  invoke void @_ZN6icu_7511MeasureUnit8initTimeEPKc(ptr noundef nonnull align 8 dereferenceable(19) %this1, ptr noundef @.str.3)
          to label %invoke.cont8 unwind label %lpad

invoke.cont8:                                     ; preds = %sw.bb7
  br label %sw.epilog

sw.bb9:                                           ; preds = %entry
  invoke void @_ZN6icu_7511MeasureUnit8initTimeEPKc(ptr noundef nonnull align 8 dereferenceable(19) %this1, ptr noundef @.str.4)
          to label %invoke.cont10 unwind label %lpad

invoke.cont10:                                    ; preds = %sw.bb9
  br label %sw.epilog

sw.bb11:                                          ; preds = %entry
  invoke void @_ZN6icu_7511MeasureUnit8initTimeEPKc(ptr noundef nonnull align 8 dereferenceable(19) %this1, ptr noundef @.str.5)
          to label %invoke.cont12 unwind label %lpad

invoke.cont12:                                    ; preds = %sw.bb11
  br label %sw.epilog

sw.bb13:                                          ; preds = %entry
  invoke void @_ZN6icu_7511MeasureUnit8initTimeEPKc(ptr noundef nonnull align 8 dereferenceable(19) %this1, ptr noundef @.str.6)
          to label %invoke.cont14 unwind label %lpad

invoke.cont14:                                    ; preds = %sw.bb13
  br label %sw.epilog

sw.default:                                       ; preds = %entry
  call void @abort() #6
  unreachable

sw.epilog:                                        ; preds = %invoke.cont14, %invoke.cont12, %invoke.cont10, %invoke.cont8, %invoke.cont6, %invoke.cont4, %invoke.cont
  ret void

eh.resume:                                        ; preds = %lpad
  %exn = load ptr, ptr %exn.slot, align 8
  %sel = load i32, ptr %ehselector.slot, align 4
  %lpad.val = insertvalue { ptr, i32 } poison, ptr %exn, 0
  %lpad.val15 = insertvalue { ptr, i32 } %lpad.val, i32 %sel, 1
  resume { ptr, i32 } %lpad.val15
}