; Function Attrs: mustprogress uwtable
define void @_ZN6icu_758TimeUnitC2ENS0_15UTimeUnitFieldsE(ptr noundef nonnull align 8 dereferenceable(24) %this, i32 noundef %timeUnitField) unnamed_addr #1 align 2 personality ptr @__gxx_personality_v0 {
entry:
  tail call void @_ZN6icu_7511MeasureUnitC2Ev(ptr noundef nonnull align 8 dereferenceable(19) %this)
  store ptr getelementptr inbounds ({ [7 x ptr] }, ptr @_ZTVN6icu_758TimeUnitE, i64 0, i32 0, i64 2), ptr %this, align 8
  %fTimeUnitField = getelementptr inbounds i8, ptr %this, i64 20
  store i32 %timeUnitField, ptr %fTimeUnitField, align 4
  %0 = icmp ult i32 %timeUnitField, 7
  br i1 %0, label %switch.lookup, label %sw.default

lpad:                                             ; preds = %switch.lookup
  %1 = landingpad { ptr, i32 }
          cleanup
  tail call void @_ZN6icu_7511MeasureUnitD2Ev(ptr noundef nonnull align 8 dereferenceable(19) %this) #7
  resume { ptr, i32 } %1

switch.lookup:                                    ; preds = %entry
  %2 = zext nneg i32 %timeUnitField to i64
  %switch.gep = getelementptr inbounds [7 x ptr], ptr @switch.table._ZN6icu_758TimeUnitC2ENS0_15UTimeUnitFieldsE, i64 0, i64 %2
  %switch.load = load ptr, ptr %switch.gep, align 8
  invoke void @_ZN6icu_7511MeasureUnit8initTimeEPKc(ptr noundef nonnull align 8 dereferenceable(19) %this, ptr noundef nonnull %switch.load)
          to label %sw.epilog unwind label %lpad

sw.default:                                       ; preds = %entry
  tail call void @abort() #8
  unreachable

sw.epilog:                                        ; preds = %switch.lookup
  ret void
}